; Function Attrs: mustprogress uwtable
define void @_ZN8proxygen13SessionHolder6unlinkEv(ptr noundef nonnull align 8 dereferenceable(152) %this) local_unnamed_addr #3 align 2 personality ptr @__gxx_personality_v0 {
entry:
  %ref.tmp2 = alloca %"class.google::LogMessageFatal", align 8
  %ref.tmp14 = alloca %"class.google::LogMessageFatal", align 8
  %ref.tmp39 = alloca %"class.google::LogMessageFatal", align 8
  %parent_ = getelementptr inbounds i8, ptr %this, i64 48
  %0 = load ptr, ptr %parent_, align 8
  %tobool.not = icmp eq ptr %0, null
  br i1 %tobool.not, label %cond.false, label %cleanup.done

cond.false:                                       ; preds = %entry
  call void @_ZN6google15LogMessageFatalC1EPKci(ptr noundef nonnull align 8 dereferenceable(96) %ref.tmp2, ptr noundef nonnull @.str, i32 noundef 111)
  %call = invoke noundef nonnull align 8 dereferenceable(8) ptr @_ZN6google10LogMessage6streamEv(ptr noundef nonnull align 8 dereferenceable(96) %ref.tmp2)
          to label %invoke.cont unwind label %lpad

invoke.cont:                                      ; preds = %cond.false
  %call4 = invoke noundef nonnull align 8 dereferenceable(8) ptr @_ZStlsISt11char_traitsIcEERSt13basic_ostreamIcT_ES5_PKc(ptr noundef nonnull align 8 dereferenceable(8) %call, ptr noundef nonnull @.str.8)
          to label %cleanup.action unwind label %lpad

cleanup.action:                                   ; preds = %invoke.cont
  call void @_ZN6google15LogMessageFatalD1Ev(ptr noundef nonnull align 8 dereferenceable(96) %ref.tmp2) #23
  unreachable

lpad:                                             ; preds = %invoke.cont, %cond.false
  %1 = landingpad { ptr, i32 }
          cleanup
  call void @_ZN6google15LogMessageFatalD1Ev(ptr noundef nonnull align 8 dereferenceable(96) %ref.tmp2) #23
  unreachable

cleanup.done:                                     ; preds = %entry
  %listHook = getelementptr inbounds i8, ptr %this, i64 8
  %2 = load ptr, ptr %listHook, align 8
  %tobool.not.i = icmp eq ptr %2, null
  %cmp.i = icmp eq ptr %2, %listHook
  %3 = or i1 %tobool.not.i, %cmp.i
  br i1 %3, label %cond.false12, label %cleanup.done25

cond.false12:                                     ; preds = %cleanup.done
  call void @_ZN6google15LogMessageFatalC1EPKci(ptr noundef nonnull align 8 dereferenceable(96) %ref.tmp14, ptr noundef nonnull @.str, i32 noundef 112)
  %call18 = invoke noundef nonnull align 8 dereferenceable(8) ptr @_ZN6google10LogMessage6streamEv(ptr noundef nonnull align 8 dereferenceable(96) %ref.tmp14)
          to label %invoke.cont17 unwind label %lpad16

invoke.cont17:                                    ; preds = %cond.false12
  %call20 = invoke noundef nonnull align 8 dereferenceable(8) ptr @_ZStlsISt11char_traitsIcEERSt13basic_ostreamIcT_ES5_PKc(ptr noundef nonnull align 8 dereferenceable(8) %call18, ptr noundef nonnull @.str.9)
          to label %cleanup.action24 unwind label %lpad16

cleanup.action24:                                 ; preds = %invoke.cont17
  call void @_ZN6google15LogMessageFatalD1Ev(ptr noundef nonnull align 8 dereferenceable(96) %ref.tmp14) #23
  unreachable

lpad16:                                           ; preds = %invoke.cont17, %cond.false12
  %4 = landingpad { ptr, i32 }
          cleanup
  call void @_ZN6google15LogMessageFatalD1Ev(ptr noundef nonnull align 8 dereferenceable(96) %ref.tmp14) #23
  unreachable

cleanup.done25:                                   ; preds = %cleanup.done
  %state_ = getelementptr inbounds i8, ptr %this, i64 80
  %5 = load i32, ptr %state_, align 8
  switch i32 %5, label %sw.epilog [
    i32 1, label %sw.epilog.sink.split
    i32 2, label %sw.bb30
    i32 3, label %sw.bb34
    i32 0, label %sw.bb38
  ]

sw.bb30:                                          ; preds = %cleanup.done25
  br label %sw.epilog.sink.split

sw.bb34:                                          ; preds = %cleanup.done25
  br label %sw.epilog.sink.split

sw.bb38:                                          ; preds = %cleanup.done25
  call void @_ZN6google15LogMessageFatalC1EPKci(ptr noundef nonnull align 8 dereferenceable(96) %ref.tmp39, ptr noundef nonnull @.str, i32 noundef 125)
  %call42 = invoke noundef nonnull align 8 dereferenceable(8) ptr @_ZN6google10LogMessage6streamEv(ptr noundef nonnull align 8 dereferenceable(96) %ref.tmp39)
          to label %invoke.cont41 unwind label %lpad40

invoke.cont41:                                    ; preds = %sw.bb38
  %call44 = invoke noundef nonnull align 8 dereferenceable(8) ptr @_ZStlsISt11char_traitsIcEERSt13basic_ostreamIcT_ES5_PKc(ptr noundef nonnull align 8 dereferenceable(8) %call42, ptr noundef nonnull @.str.10)
          to label %invoke.cont43 unwind label %lpad40

invoke.cont43:                                    ; preds = %invoke.cont41
  call void @_ZN6google15LogMessageFatalD1Ev(ptr noundef nonnull align 8 dereferenceable(96) %ref.tmp39) #23
  unreachable

lpad40:                                           ; preds = %invoke.cont41, %sw.bb38
  %6 = landingpad { ptr, i32 }
          cleanup
  call void @_ZN6google15LogMessageFatalD1Ev(ptr noundef nonnull align 8 dereferenceable(96) %ref.tmp39) #23
  unreachable

sw.epilog.sink.split:                             ; preds = %cleanup.done25, %sw.bb30, %sw.bb34
  %.sink = phi i64 [ 32, %sw.bb34 ], [ 24, %sw.bb30 ], [ 16, %cleanup.done25 ]
  %vtable36 = load ptr, ptr %0, align 8
  %vfn37 = getelementptr inbounds i8, ptr %vtable36, i64 %.sink
  %7 = load ptr, ptr %vfn37, align 8
  tail call void %7(ptr noundef nonnull align 8 dereferenceable(8) %0, ptr noundef nonnull %this)
  br label %sw.epilog

sw.epilog:                                        ; preds = %sw.epilog.sink.split, %cleanup.done25
  store i32 0, ptr %state_, align 8
  ret void
}